
Certificate:
    Data:
        Version: 3 (0x2)
        Serial Number: 16 (0x10)
        Signature Algorithm: sha1WithRSAEncryption
        Issuer: C=RU, ST=Moscow, O=Phorm Inc, OU=Phorm Moscow, CN=Phorm Moscow CA/emailAddress=adm@ocslab.com
        Validity
            Not Before: Mar 15 12:33:36 2010 GMT
            Not After : Mar 12 12:33:36 2020 GMT
        Subject: C=RU, ST=Moscow, L=Moscow, O=Phorm Inc, OU=Phorm Moscow, CN=*.foros-rubytest.net
        Subject Public Key Info:
            Public Key Algorithm: rsaEncryption
            RSA Public Key: (1024 bit)
                Modulus (1024 bit):
                    00:f2:17:06:15:76:4f:96:71:5b:48:b1:d2:73:f1:
                    04:6c:9b:df:a6:c3:d1:38:09:94:79:9c:dc:87:7a:
                    73:64:88:59:d7:a4:f7:a6:dc:1a:33:27:12:59:3a:
                    54:f9:6c:56:ee:7e:2a:0d:99:d0:81:09:40:fd:5e:
                    1c:1d:df:82:39:c8:2b:b2:18:e3:d5:bb:f1:18:b2:
                    f3:a9:79:6b:0b:e2:9f:cb:09:d6:ae:f2:dc:65:15:
                    6e:15:55:6b:d1:9b:22:63:2f:02:57:55:b2:5a:3c:
                    ed:61:8c:4e:7d:33:6d:7b:6d:46:f0:89:7d:cc:39:
                    d5:26:e5:32:eb:e4:b8:27:8b
                Exponent: 65537 (0x10001)
        X509v3 extensions:
            X509v3 Basic Constraints:
                CA:FALSE
            Netscape Comment:
                OpenSSL Generated Certificate
            X509v3 Subject Key Identifier:
                54:AF:20:4A:FD:7D:53:3D:4A:58:12:B0:99:4E:A3:8F:44:9E:B4:ED
            X509v3 Authority Key Identifier:
                keyid:FD:FE:7E:27:30:13:8C:A8:1C:3D:32:02:C4:2D:0B:60:3F:87:E1:F2

    Signature Algorithm: sha1WithRSAEncryption
        8a:41:8e:99:4a:88:cb:38:fb:47:7a:cb:0e:2d:83:d7:9f:6d:
        f8:d3:38:f5:22:92:e1:cc:8e:d1:02:8a:51:91:fb:db:c6:70:
        e9:f1:bf:06:7d:0e:e3:b0:6d:56:a2:d2:b1:7c:3a:75:e0:85:
        ff:ca:49:aa:39:d4:29:b4:76:50:07:c3:3d:05:1b:ef:b2:9b:
        b9:6a:72:32:4d:19:67:e7:0e:02:8e:1f:89:35:f2:80:c6:5a:
        be:06:9d:28:35:34:d2:aa:34:07:fc:bd:74:c5:0c:a6:5e:3a:
        2c:71:74:0e:f5:a3:2e:58:c2:c1:bb:bb:75:43:8c:9d:b0:ac:
        17:aa
-----BEGIN CERTIFICATE-----
MIIC6zCCAlSgAwIBAgIBEDANBgkqhkiG9w0BAQUFADCBgjELMAkGA1UEBhMCUlUx
DzANBgNVBAgTBk1vc2NvdzESMBAGA1UEChMJUGhvcm0gSW5jMRUwEwYDVQQLEwxQ
aG9ybSBNb3Njb3cxGDAWBgNVBAMTD1Bob3JtIE1vc2NvdyBDQTEdMBsGCSqGSIb3
DQEJARYOYWRtQG9jc2xhYi5jb20wHhcNMTAwMzE1MTIzMzM2WhcNMjAwMzEyMTIz
MzM2WjB3MQswCQYDVQQGEwJSVTEPMA0GA1UECBMGTW9zY293MQ8wDQYDVQQHEwZN
b3Njb3cxEjAQBgNVBAoTCVBob3JtIEluYzEVMBMGA1UECxMMUGhvcm0gTW9zY293
MRswGQYDVQQDDBIqLm9peC1ydWJ5dGVzdC5uZXQwgZ8wDQYJKoZIhvcNAQEBBQAD
gY0AMIGJAoGBAPIXBhV2T5ZxW0ix0nPxBGyb36bD0TgJlHmc3Id6c2SIWdek96bc
GjMnElk6VPlsVu5+Kg2Z0IEJQP1eHB3fgjnIK7IY49W78Riy86l5awvin8sJ1q7y
3GUVbhVVa9GbImMvAldVslo87WGMTn0zbXttRvCJfcw51SblMuvkuCeLAgMBAAGj
ezB5MAkGA1UdEwQCMAAwLAYJYIZIAYb4QgENBB8WHU9wZW5TU0wgR2VuZXJhdGVk
IENlcnRpZmljYXRlMB0GA1UdDgQWBBRUryBK/X1TPUpYErCZTqOPRJ607TAfBgNV
HSMEGDAWgBT9/n4nMBOMqBw9MgLELQtgP4fh8jANBgkqhkiG9w0BAQUFAAOBgQCK
QY6ZSojLOPtHessOLYPXn2340zj1IpLhzI7RAopRkfvbxnDp8b8GfQ7jsG1WotKx
fDp14IX/ykmqOdQptHZQB8M9BRvvspu5anIyTRln5w4Cjh+JNfKAxlq+Bp0oNTTS
qjQH/L10xQymXjoscXQO9aMuWMLBu7t1Q4ydsKwXqg==
-----END CERTIFICATE-----
                